target datalayout = "e-m:e-p270:32:32-p271:32:32-p272:64:64-i64:64-i128:128-f80:128-n8:16:32:64-S128"
target triple = "x86_64-pc-linux-gnu"

%"class.llvm::SmallVectorBase" = type { ptr, i32, i32 }
%"class.llvm::SmallPtrSetImplBase.base" = type <{ ptr, ptr, i32, i32, i32 }>
%"class.llvm::ilist_node_base" = type { %"class.llvm::ilist_detail::node_base_prevnext" }
%"class.llvm::ilist_detail::node_base_prevnext" = type { ptr, ptr }
%"class.llvm::SmallVectorBase.25" = type { ptr, i64, i64 }
%"class.llvm::SmallVectorImpl.28" = type { %"class.llvm::SmallVectorTemplateBase.29" }
%"class.llvm::SmallVectorTemplateBase.29" = type { %"class.llvm::SmallVectorTemplateCommon.30" }
%"class.llvm::SmallVectorTemplateCommon.30" = type { %"class.llvm::SmallVectorBase" }
%"class.llvm::SmallVectorImpl.116" = type { %"class.llvm::SmallVectorTemplateBase.117" }
%"class.llvm::SmallVectorTemplateBase.117" = type { %"class.llvm::SmallVectorTemplateCommon.118" }
%"class.llvm::SmallVectorTemplateCommon.118" = type { %"class.llvm::SmallVectorBase" }
%"class.llvm::SmallVector.120" = type { %"class.llvm::SmallVectorImpl.116", %"struct.llvm::SmallVectorStorage.121" }
%"struct.llvm::SmallVectorStorage.121" = type { [128 x i8] }
%"class.llvm::Register" = type { i32 }
%"struct.llvm::FunctionLoweringInfo::LiveOutInfo" = type { i32, [4 x i8], %"struct.llvm::KnownBits" }
%"struct.llvm::KnownBits" = type { %"class.llvm::APInt", %"class.llvm::APInt" }
%"class.llvm::APInt" = type <{ %union.anon.185, i32, [4 x i8] }>
%union.anon.185 = type { i64 }
%"class.llvm::FunctionLoweringInfo" = type { ptr, ptr, ptr, ptr, ptr, ptr, i8, i8, %"class.llvm::Register", %"class.llvm::SmallVector.122", %"class.llvm::DenseMap.127", %"class.llvm::DenseMap.130", %"class.llvm::DenseMap.127", %"class.llvm::DenseMap.133", %"class.llvm::DenseMap.136", %"class.llvm::DenseMap.139", %"class.llvm::SmallVector.142", %"class.llvm::BitVector", %"class.llvm::DenseMap.152", %"class.llvm::DenseSet", %"class.llvm::SmallVector.158", ptr, %"class.llvm::MachineInstrBundleIterator", %"class.llvm::DenseMap.161", %"class.llvm::SmallVector.164", %"class.std::vector.169", i32, i32, i32, i32, %"class.llvm::SmallPtrSet.174", %"class.llvm::SmallPtrSet.177", %"class.llvm::IndexedMap" }
%"class.llvm::SmallVector.122" = type { %"class.llvm::SmallVectorImpl.123", %"struct.llvm::SmallVectorStorage.126" }
%"class.llvm::SmallVectorImpl.123" = type { %"class.llvm::SmallVectorTemplateBase.124" }
%"class.llvm::SmallVectorTemplateBase.124" = type { %"class.llvm::SmallVectorTemplateCommon.125" }
%"class.llvm::SmallVectorTemplateCommon.125" = type { %"class.llvm::SmallVectorBase" }
%"struct.llvm::SmallVectorStorage.126" = type { [48 x i8] }
%"class.llvm::DenseMap.130" = type <{ ptr, i32, i32, i32, [4 x i8] }>
%"class.llvm::DenseMap.127" = type <{ ptr, i32, i32, i32, [4 x i8] }>
%"class.llvm::DenseMap.133" = type <{ ptr, i32, i32, i32, [4 x i8] }>
%"class.llvm::DenseMap.136" = type <{ ptr, i32, i32, i32, [4 x i8] }>
%"class.llvm::DenseMap.139" = type <{ ptr, i32, i32, i32, [4 x i8] }>
%"class.llvm::SmallVector.142" = type { %"class.llvm::SmallVectorImpl.143", %"struct.llvm::SmallVectorStorage.146" }
%"class.llvm::SmallVectorImpl.143" = type { %"class.llvm::SmallVectorTemplateBase.144" }
%"class.llvm::SmallVectorTemplateBase.144" = type { %"class.llvm::SmallVectorTemplateCommon.145" }
%"class.llvm::SmallVectorTemplateCommon.145" = type { %"class.llvm::SmallVectorBase" }
%"struct.llvm::SmallVectorStorage.146" = type { [64 x i8] }
%"class.llvm::BitVector" = type <{ %"class.llvm::SmallVector.147", i32, [4 x i8] }>
%"class.llvm::SmallVector.147" = type { %"class.llvm::SmallVectorImpl.148", %"struct.llvm::SmallVectorStorage.151" }
%"class.llvm::SmallVectorImpl.148" = type { %"class.llvm::SmallVectorTemplateBase.149" }
%"class.llvm::SmallVectorTemplateBase.149" = type { %"class.llvm::SmallVectorTemplateCommon.150" }
%"class.llvm::SmallVectorTemplateCommon.150" = type { %"class.llvm::SmallVectorBase" }
%"struct.llvm::SmallVectorStorage.151" = type { [48 x i8] }
%"class.llvm::DenseMap.152" = type <{ ptr, i32, i32, i32, [4 x i8] }>
%"class.llvm::DenseSet" = type { %"class.llvm::detail::DenseSetImpl" }
%"class.llvm::detail::DenseSetImpl" = type { %"class.llvm::DenseMap.155" }
%"class.llvm::DenseMap.155" = type <{ ptr, i32, i32, i32, [4 x i8] }>
%"class.llvm::SmallVector.158" = type { %"class.llvm::SmallVectorImpl.28", %"struct.llvm::SmallVectorStorage.159" }
%"struct.llvm::SmallVectorStorage.159" = type { [200 x i8] }
%"class.llvm::MachineInstrBundleIterator" = type { %"class.llvm::ilist_iterator" }
%"class.llvm::ilist_iterator" = type { ptr }
%"class.llvm::DenseMap.161" = type <{ ptr, i32, i32, i32, [4 x i8] }>
%"class.llvm::SmallVector.164" = type { %"class.llvm::SmallVectorImpl.165", %"struct.llvm::SmallVectorStorage.168" }
%"class.llvm::SmallVectorImpl.165" = type { %"class.llvm::SmallVectorTemplateBase.166" }
%"class.llvm::SmallVectorTemplateBase.166" = type { %"class.llvm::SmallVectorTemplateCommon.167" }
%"class.llvm::SmallVectorTemplateCommon.167" = type { %"class.llvm::SmallVectorBase.25" }
%"struct.llvm::SmallVectorStorage.168" = type { [40 x i8] }
%"class.std::vector.169" = type { %"struct.std::_Vector_base.170" }
%"struct.std::_Vector_base.170" = type { %"struct.std::_Vector_base<std::pair<llvm::MachineInstr *, unsigned int>, std::allocator<std::pair<llvm::MachineInstr *, unsigned int>>>::_Vector_impl" }
%"struct.std::_Vector_base<std::pair<llvm::MachineInstr *, unsigned int>, std::allocator<std::pair<llvm::MachineInstr *, unsigned int>>>::_Vector_impl" = type { %"struct.std::_Vector_base<std::pair<llvm::MachineInstr *, unsigned int>, std::allocator<std::pair<llvm::MachineInstr *, unsigned int>>>::_Vector_impl_data" }
%"struct.std::_Vector_base<std::pair<llvm::MachineInstr *, unsigned int>, std::allocator<std::pair<llvm::MachineInstr *, unsigned int>>>::_Vector_impl_data" = type { ptr, ptr, ptr }
%"class.llvm::SmallPtrSet.174" = type { %"class.llvm::SmallPtrSetImpl.base.176", [8 x ptr] }
%"class.llvm::SmallPtrSetImpl.base.176" = type { %"class.llvm::SmallPtrSetImplBase.base" }
%"class.llvm::SmallPtrSet.177" = type { %"class.llvm::SmallPtrSetImpl.base.179", [8 x ptr] }
%"class.llvm::SmallPtrSetImpl.base.179" = type { %"class.llvm::SmallPtrSetImplBase.base" }
%"class.llvm::IndexedMap" = type <{ %"class.llvm::SmallVector.180", %"struct.llvm::FunctionLoweringInfo::LiveOutInfo", [8 x i8] }>
%"class.llvm::SmallVector.180" = type { %"class.llvm::SmallVectorImpl.181" }
%"class.llvm::SmallVectorImpl.181" = type { %"class.llvm::SmallVectorTemplateBase.182" }
%"class.llvm::SmallVectorTemplateBase.182" = type { %"class.llvm::SmallVectorTemplateCommon.183" }
%"class.llvm::SmallVectorTemplateCommon.183" = type { %"class.llvm::SmallVectorBase" }
%"class.llvm::ilist_node_impl.217" = type { %"class.llvm::ilist_node_base" }
%"struct.llvm::Align" = type { i8 }
%"class.llvm::SelectionDAGBuilder" = type { ptr, %"class.llvm::DenseMap.362", %"class.llvm::DenseMap.362", %"class.llvm::MapVector", i8, %"class.llvm::SmallVector.120", %"class.llvm::StatepointLoweringState", %"class.llvm::SmallVector.120", %"class.llvm::SmallVector.120", %"class.llvm::SmallVector.120", i32, ptr, ptr, ptr, ptr, ptr, %"class.std::unique_ptr.381", %"class.llvm::StackProtectorDescriptor", %"class.llvm::DenseMap.389", ptr, ptr, ptr, %"class.llvm::DenseMap.392", i8, ptr }
%"class.llvm::DenseMap.362" = type <{ ptr, i32, i32, i32, [4 x i8] }>
%"class.llvm::MapVector" = type { %"class.llvm::DenseMap.365", %"class.llvm::SmallVector.368" }
%"class.llvm::DenseMap.365" = type <{ ptr, i32, i32, i32, [4 x i8] }>
%"class.llvm::SmallVector.368" = type { %"class.llvm::SmallVectorImpl.369" }
%"class.llvm::SmallVectorImpl.369" = type { %"class.llvm::SmallVectorTemplateBase.370" }
%"class.llvm::SmallVectorTemplateBase.370" = type { %"class.llvm::SmallVectorTemplateCommon.371" }
%"class.llvm::SmallVectorTemplateCommon.371" = type { %"class.llvm::SmallVectorBase" }
%"class.llvm::StatepointLoweringState" = type { %"class.llvm::DenseMap.373", %"class.llvm::SmallBitVector", i32, %"class.llvm::SmallVector.376" }
%"class.llvm::DenseMap.373" = type <{ ptr, i32, i32, i32, [4 x i8] }>
%"class.llvm::SmallBitVector" = type { i64 }
%"class.llvm::SmallVector.376" = type { %"class.llvm::SmallVectorImpl.377", %"struct.llvm::SmallVectorStorage.380" }
%"class.llvm::SmallVectorImpl.377" = type { %"class.llvm::SmallVectorTemplateBase.378" }
%"class.llvm::SmallVectorTemplateBase.378" = type { %"class.llvm::SmallVectorTemplateCommon.379" }
%"class.llvm::SmallVectorTemplateCommon.379" = type { %"class.llvm::SmallVectorBase" }
%"struct.llvm::SmallVectorStorage.380" = type { [80 x i8] }
%"class.std::unique_ptr.381" = type { %"struct.std::__uniq_ptr_data.382" }
%"struct.std::__uniq_ptr_data.382" = type { %"class.std::__uniq_ptr_impl.383" }
%"class.std::__uniq_ptr_impl.383" = type { %"class.std::tuple.384" }
%"class.std::tuple.384" = type { %"struct.std::_Tuple_impl.385" }
%"struct.std::_Tuple_impl.385" = type { %"struct.std::_Head_base.388" }
%"struct.std::_Head_base.388" = type { ptr }
%"class.llvm::StackProtectorDescriptor" = type { ptr, ptr, ptr }
%"class.llvm::DenseMap.389" = type <{ ptr, i32, i32, i32, [4 x i8] }>
%"class.llvm::DenseMap.392" = type <{ ptr, i32, i32, i32, [4 x i8] }>
%"class.std::optional.653" = type { %"struct.std::_Optional_base.654" }
%"struct.std::_Optional_base.654" = type { %"struct.std::_Optional_payload.656" }
%"struct.std::_Optional_payload.656" = type { %"struct.std::_Optional_payload_base.base.658", [7 x i8] }
%"struct.std::_Optional_payload_base.base.658" = type <{ %"union.std::_Optional_payload_base<unsigned long>::_Storage", i8 }>
%"union.std::_Optional_payload_base<unsigned long>::_Storage" = type { i64 }
%"class.llvm::MachineBasicBlock" = type { %"class.llvm::ilist_node_with_parent.698", ptr, i32, i32, ptr, %"class.llvm::iplist.700", %"class.llvm::SmallVector.712", %"class.llvm::SmallVector.714", %"class.std::vector.716", %"class.std::optional.653", %"class.std::vector.721", %"struct.llvm::Align", i32, i8, i8, ptr, i8, i8, i8, i8, i8, [3 x i8], %"class.std::optional.726", %"struct.llvm::MBBSectionID", i8, i8, i8, ptr, ptr, ptr }
%"class.llvm::ilist_node_with_parent.698" = type { %"class.llvm::ilist_node.699" }
%"class.llvm::ilist_node.699" = type { %"class.llvm::ilist_node_impl.217" }
%"class.llvm::iplist.700" = type { %"class.llvm::iplist_impl.701" }
%"class.llvm::iplist_impl.701" = type { %"struct.llvm::ilist_traits.702", %"class.llvm::simple_ilist.703" }
%"struct.llvm::ilist_traits.702" = type { ptr }
%"class.llvm::simple_ilist.703" = type { %"class.llvm::ilist_sentinel.705" }
%"class.llvm::ilist_sentinel.705" = type { %"class.llvm::ilist_node_impl.706" }
%"class.llvm::ilist_node_impl.706" = type { %"class.llvm::ilist_node_base.707" }
%"class.llvm::ilist_node_base.707" = type { %"class.llvm::ilist_detail::node_base_prevnext.708" }
%"class.llvm::ilist_detail::node_base_prevnext.708" = type { %"class.llvm::PointerIntPair.709", ptr }
%"class.llvm::PointerIntPair.709" = type { %"struct.llvm::detail::PunnedPointer.710" }
%"struct.llvm::detail::PunnedPointer.710" = type { [8 x i8] }
%"class.llvm::SmallVector.712" = type { %"class.llvm::SmallVectorImpl.123", %"struct.llvm::SmallVectorStorage.713" }
%"struct.llvm::SmallVectorStorage.713" = type { [32 x i8] }
%"class.llvm::SmallVector.714" = type { %"class.llvm::SmallVectorImpl.123", %"struct.llvm::SmallVectorStorage.715" }
%"struct.llvm::SmallVectorStorage.715" = type { [16 x i8] }
%"class.std::vector.716" = type { %"struct.std::_Vector_base.717" }
%"struct.std::_Vector_base.717" = type { %"struct.std::_Vector_base<llvm::BranchProbability, std::allocator<llvm::BranchProbability>>::_Vector_impl" }
%"struct.std::_Vector_base<llvm::BranchProbability, std::allocator<llvm::BranchProbability>>::_Vector_impl" = type { %"struct.std::_Vector_base<llvm::BranchProbability, std::allocator<llvm::BranchProbability>>::_Vector_impl_data" }
%"struct.std::_Vector_base<llvm::BranchProbability, std::allocator<llvm::BranchProbability>>::_Vector_impl_data" = type { ptr, ptr, ptr }
%"class.std::vector.721" = type { %"struct.std::_Vector_base.722" }
%"struct.std::_Vector_base.722" = type { %"struct.std::_Vector_base<llvm::MachineBasicBlock::RegisterMaskPair, std::allocator<llvm::MachineBasicBlock::RegisterMaskPair>>::_Vector_impl" }
%"struct.std::_Vector_base<llvm::MachineBasicBlock::RegisterMaskPair, std::allocator<llvm::MachineBasicBlock::RegisterMaskPair>>::_Vector_impl" = type { %"struct.std::_Vector_base<llvm::MachineBasicBlock::RegisterMaskPair, std::allocator<llvm::MachineBasicBlock::RegisterMaskPair>>::_Vector_impl_data" }
%"struct.std::_Vector_base<llvm::MachineBasicBlock::RegisterMaskPair, std::allocator<llvm::MachineBasicBlock::RegisterMaskPair>>::_Vector_impl_data" = type { ptr, ptr, ptr }
%"class.std::optional.726" = type { %"struct.std::_Optional_base.727" }
%"struct.std::_Optional_base.727" = type { %"struct.std::_Optional_payload.729" }
%"struct.std::_Optional_payload.729" = type { %"struct.std::_Optional_payload_base.base.731", [3 x i8] }
%"struct.std::_Optional_payload_base.base.731" = type <{ %"union.std::_Optional_payload_base<llvm::UniqueBBID>::_Storage", i8 }>
%"union.std::_Optional_payload_base<llvm::UniqueBBID>::_Storage" = type { %"struct.llvm::UniqueBBID" }
%"struct.llvm::UniqueBBID" = type { i32, i32 }
%"struct.llvm::MBBSectionID" = type { i32, i32 }

; Function Attrs: mustprogress nounwind uwtable
define linkonce_odr hidden void @_ZN4llvm17MachineBasicBlock19setIsEHFuncletEntryEb(ptr noundef nonnull align 8 dereferenceable(288) %0, i1 noundef zeroext %1) #1 comdat align 2 {
  %3 = alloca ptr, align 8
  %4 = alloca i8, align 1
  store ptr %0, ptr %3, align 8
  %5 = zext i1 %1 to i8
  store i8 %5, ptr %4, align 1
  %6 = load ptr, ptr %3, align 8
  %7 = load i8, ptr %4, align 1
  %8 = trunc i8 %7 to i1
  %9 = getelementptr inbounds nuw %"class.llvm::MachineBasicBlock", ptr %6, i32 0, i32 19
  %10 = zext i1 %8 to i8
  store i8 %10, ptr %9, align 1
  ret void
}

; Function Attrs: mustprogress nounwind uwtable
define linkonce_odr hidden void @_ZN4llvm17MachineBasicBlock17setIsEHScopeEntryEb(ptr noundef nonnull align 8 dereferenceable(288) %0, i1 noundef zeroext %1) #1 comdat align 2 {
  %3 = alloca ptr, align 8
  %4 = alloca i8, align 1
  store ptr %0, ptr %3, align 8
  %5 = zext i1 %1 to i8
  store i8 %5, ptr %4, align 1
  %6 = load ptr, ptr %3, align 8
  %7 = load i8, ptr %4, align 1
  %8 = trunc i8 %7 to i1
  %9 = getelementptr inbounds nuw %"class.llvm::MachineBasicBlock", ptr %6, i32 0, i32 17
  %10 = zext i1 %8 to i8
  store i8 %10, ptr %9, align 1
  ret void
}

; Function Attrs: mustprogress nounwind uwtable
define linkonce_odr hidden noundef zeroext i1 @_ZN4llvm27isAsynchronousEHPersonalityENS_13EHPersonalityE(i32 noundef %0) #1 comdat {
  %2 = alloca i1, align 1
  %3 = alloca i32, align 4
  store i32 %0, ptr %3, align 4
  %4 = load i32, ptr %3, align 4
  switch i32 %4, label %6 [
    i32 7, label %5
    i32 8, label %5
  ]

5:                                                ; preds = %1, %1
  store i1 true, ptr %2, align 1
  br label %7

6:                                                ; preds = %1
  store i1 false, ptr %2, align 1
  br label %7

7:                                                ; preds = %6, %5
  %8 = load i1, ptr %2, align 1
  ret i1 %8
}

; Function Attrs: mustprogress nounwind uwtable
define dso_local void @_ZN4llvm19SelectionDAGBuilder13visitCatchPadERKNS_12CatchPadInstE(ptr noundef nonnull align 8 dereferenceable(984) %0, ptr noundef nonnull align 8 dereferenceable(72) %1) #1 align 2 {
  %3 = alloca ptr, align 8
  %4 = alloca ptr, align 8
  %5 = alloca i32, align 4
  %6 = alloca i8, align 1
  %7 = alloca i8, align 1
  %8 = alloca i8, align 1
  %9 = alloca ptr, align 8
  store ptr %0, ptr %3, align 8
  store ptr %1, ptr %4, align 8
  %10 = load ptr, ptr %3, align 8
  %11 = getelementptr inbounds nuw %"class.llvm::SelectionDAGBuilder", ptr %10, i32 0, i32 19
  %12 = load ptr, ptr %11, align 8
  %13 = getelementptr inbounds nuw %"class.llvm::FunctionLoweringInfo", ptr %12, i32 0, i32 0
  %14 = load ptr, ptr %13, align 8
  %15 = call noundef ptr @_ZNK4llvm8Function16getPersonalityFnEv(ptr noundef nonnull align 8 dereferenceable(136) %14)
  %16 = call noundef i32 @_ZN4llvm21classifyEHPersonalityEPKNS_5ValueE(ptr noundef %15)
  store i32 %16, ptr %5, align 4
  %17 = load i32, ptr %5, align 4
  %18 = icmp eq i32 %17, 9
  %19 = zext i1 %18 to i8
  store i8 %19, ptr %6, align 1
  %20 = load i32, ptr %5, align 4
  %21 = icmp eq i32 %20, 10
  %22 = zext i1 %21 to i8
  store i8 %22, ptr %7, align 1
  %23 = load i32, ptr %5, align 4
  %24 = call noundef zeroext i1 @_ZN4llvm27isAsynchronousEHPersonalityENS_13EHPersonalityE(i32 noundef %23)
  %25 = zext i1 %24 to i8
  store i8 %25, ptr %8, align 1
  %26 = getelementptr inbounds nuw %"class.llvm::SelectionDAGBuilder", ptr %10, i32 0, i32 19
  %27 = load ptr, ptr %26, align 8
  %28 = getelementptr inbounds nuw %"class.llvm::FunctionLoweringInfo", ptr %27, i32 0, i32 21
  %29 = load ptr, ptr %28, align 8
  store ptr %29, ptr %9, align 8
  %30 = load i8, ptr %8, align 1
  %31 = trunc i8 %30 to i1
  br i1 %31, label %34, label %32

32:                                               ; preds = %2
  %33 = load ptr, ptr %9, align 8
  call void @_ZN4llvm17MachineBasicBlock17setIsEHScopeEntryEb(ptr noundef nonnull align 8 dereferenceable(288) %33, i1 noundef zeroext true)
  br label %34

34:                                               ; preds = %32, %2
  %35 = load i8, ptr %6, align 1
  %36 = trunc i8 %35 to i1
  br i1 %36, label %40, label %37

37:                                               ; preds = %34
  %38 = load i8, ptr %7, align 1
  %39 = trunc i8 %38 to i1
  br i1 %39, label %40, label %42

40:                                               ; preds = %37, %34
  %41 = load ptr, ptr %9, align 8
  call void @_ZN4llvm17MachineBasicBlock19setIsEHFuncletEntryEb(ptr noundef nonnull align 8 dereferenceable(288) %41, i1 noundef zeroext true)
  br label %42

42:                                               ; preds = %40, %37
  ret void
}