; Function Attrs: mustprogress nounwind uwtable
define dso_local void @_ZN4llvm19SelectionDAGBuilder13visitCatchPadERKNS_12CatchPadInstE(ptr nocapture noundef nonnull readonly align 8 dereferenceable(984) %0, ptr nocapture nonnull readnone align 8 %1) local_unnamed_addr #0 align 2 {
  %3 = getelementptr inbounds nuw i8, ptr %0, i64 920
  %4 = load ptr, ptr %3, align 8
  %5 = load ptr, ptr %4, align 8
  %6 = tail call noundef ptr @_ZNK4llvm8Function16getPersonalityFnEv(ptr noundef nonnull align 8 dereferenceable(136) %5) #32
  %7 = tail call noundef i32 @_ZN4llvm21classifyEHPersonalityEPKNS_5ValueE(ptr noundef %6) #32
  %.off.i = add i32 %7, -7
  %switch.i = icmp ult i32 %.off.i, 2
  %8 = load ptr, ptr %3, align 8
  %9 = getelementptr inbounds nuw i8, ptr %8, i64 680
  %10 = load ptr, ptr %9, align 8
  br i1 %switch.i, label %.thread, label %11

11:                                               ; preds = %2
  %12 = getelementptr inbounds nuw i8, ptr %10, i64 233
  store i8 1, ptr %12, align 1
  %.off = add i32 %7, -9
  %switch = icmp ult i32 %.off, 2
  br i1 %switch, label %13, label %.thread

13:                                               ; preds = %11
  %14 = getelementptr inbounds nuw i8, ptr %10, i64 235
  store i8 1, ptr %14, align 1
  br label %.thread

.thread:                                          ; preds = %2, %11, %13
  ret void
}